target datalayout = "e-m:e-p270:32:32-p271:32:32-p272:64:64-i64:64-i128:128-f80:128-n8:16:32:64-S128"
target triple = "x86_64-unknown-linux-gnu"

%"class.euf::ackerman" = type <{ ptr, ptr, %class.hashtable, ptr, ptr, i32, i32, i32, [4 x i8] }>
%class.hashtable = type { %class.core_hashtable.base, [4 x i8] }
%class.core_hashtable.base = type <{ ptr, i32, i32, i32 }>
%"struct.euf::ackerman::inference" = type <{ %class.dll_base, ptr, ptr, ptr, i32, i8, [3 x i8] }>
%class.dll_base = type { ptr, ptr }

; Function Attrs: mustprogress nounwind uwtable
define linkonce_odr hidden void @_ZN8dll_baseIN3euf8ackerman9inferenceEEC2Ev(ptr noundef nonnull align 8 dereferenceable(16) %this) unnamed_addr #4 comdat align 2 {
entry:
  %this.addr = alloca ptr, align 8
  store ptr %this, ptr %this.addr, align 8
  %this1 = load ptr, ptr %this.addr, align 8
  %m_next = getelementptr inbounds %class.dll_base, ptr %this1, i32 0, i32 0
  store ptr null, ptr %m_next, align 8
  %m_prev = getelementptr inbounds %class.dll_base, ptr %this1, i32 0, i32 1
  store ptr null, ptr %m_prev, align 8
  ret void
}

; Function Attrs: mustprogress nounwind uwtable
define linkonce_odr hidden void @_ZN8dll_baseIN3euf8ackerman9inferenceEE4initEPS2_(ptr noundef nonnull align 8 dereferenceable(16) %this, ptr noundef %t) #4 comdat align 2 {
entry:
  %this.addr = alloca ptr, align 8
  %t.addr = alloca ptr, align 8
  store ptr %this, ptr %this.addr, align 8
  store ptr %t, ptr %t.addr, align 8
  %this1 = load ptr, ptr %this.addr, align 8
  %0 = load ptr, ptr %t.addr, align 8
  %m_next = getelementptr inbounds %class.dll_base, ptr %this1, i32 0, i32 0
  store ptr %0, ptr %m_next, align 8
  %1 = load ptr, ptr %t.addr, align 8
  %m_prev = getelementptr inbounds %class.dll_base, ptr %this1, i32 0, i32 1
  store ptr %1, ptr %m_prev, align 8
  ret void
}

; Function Attrs: mustprogress nounwind uwtable
define linkonce_odr hidden void @_ZN3euf8ackerman9inferenceC2Ev(ptr noundef nonnull align 8 dereferenceable(45) %this) unnamed_addr #4 comdat align 2 {
entry:
  %this.addr = alloca ptr, align 8
  store ptr %this, ptr %this.addr, align 8
  %this1 = load ptr, ptr %this.addr, align 8
  call void @_ZN8dll_baseIN3euf8ackerman9inferenceEEC2Ev(ptr noundef nonnull align 8 dereferenceable(16) %this1) #3
  %a = getelementptr inbounds %"struct.euf::ackerman::inference", ptr %this1, i32 0, i32 1
  store ptr null, ptr %a, align 8
  %b = getelementptr inbounds %"struct.euf::ackerman::inference", ptr %this1, i32 0, i32 2
  store ptr null, ptr %b, align 8
  %c = getelementptr inbounds %"struct.euf::ackerman::inference", ptr %this1, i32 0, i32 3
  store ptr null, ptr %c, align 8
  %m_count = getelementptr inbounds %"struct.euf::ackerman::inference", ptr %this1, i32 0, i32 4
  store i32 0, ptr %m_count, align 8
  %is_cc = getelementptr inbounds %"struct.euf::ackerman::inference", ptr %this1, i32 0, i32 5
  store i8 0, ptr %is_cc, align 4
  ret void
}

; Function Attrs: mustprogress uwtable
define hidden void @_ZN3euf8ackerman7new_tmpEv(ptr noundef nonnull align 8 dereferenceable(68) %this) #5 align 2 {
entry:
  %this.addr = alloca ptr, align 8
  store ptr %this, ptr %this.addr, align 8
  %this1 = load ptr, ptr %this.addr, align 8
  %call = call noalias noundef ptr @_ZN6memory8allocateEm(i64 noundef 48)
  call void @_ZN3euf8ackerman9inferenceC2Ev(ptr noundef nonnull align 8 dereferenceable(45) %call)
  %m_tmp_inference = getelementptr inbounds %"class.euf::ackerman", ptr %this1, i32 0, i32 4
  store ptr %call, ptr %m_tmp_inference, align 8
  %m_tmp_inference2 = getelementptr inbounds %"class.euf::ackerman", ptr %this1, i32 0, i32 4
  %0 = load ptr, ptr %m_tmp_inference2, align 8
  %m_tmp_inference3 = getelementptr inbounds %"class.euf::ackerman", ptr %this1, i32 0, i32 4
  %1 = load ptr, ptr %m_tmp_inference3, align 8
  call void @_ZN8dll_baseIN3euf8ackerman9inferenceEE4initEPS2_(ptr noundef nonnull align 8 dereferenceable(16) %0, ptr noundef %1)
  ret void
}