; Function Attrs: mustprogress uwtable
define hidden void @_ZN3euf8ackerman7new_tmpEv(ptr nocapture noundef nonnull writeonly align 8 dereferenceable(68) %this) local_unnamed_addr #3 align 2 {
entry:
  %call = tail call noalias noundef ptr @_ZN6memory8allocateEm(i64 noundef 48)
  %0 = getelementptr inbounds i8, ptr %call, i64 16
  tail call void @llvm.memset.p0.i64(ptr noundef nonnull align 8 dereferenceable(45) %0, i8 0, i64 29, i1 false)
  %m_tmp_inference = getelementptr inbounds i8, ptr %this, i64 48
  store ptr %call, ptr %m_tmp_inference, align 8
  store ptr %call, ptr %call, align 8
  %m_prev.i = getelementptr inbounds i8, ptr %call, i64 8
  store ptr %call, ptr %m_prev.i, align 8
  ret void
}